target datalayout = "e-m:e-p270:32:32-p271:32:32-p272:64:64-i64:64-i128:128-f80:128-n8:16:32:64-S128"
target triple = "x86_64-pc-linux-gnu"

%struct.quic_obj_st = type { %struct.ssl_st, ptr, ptr, ptr, ptr, ptr, i64, i8 }
%struct.ssl_st = type { i32, ptr, ptr, ptr, %struct.CRYPTO_REF_COUNT, ptr, %struct.crypto_ex_data_st }
%struct.CRYPTO_REF_COUNT = type { i32 }
%struct.crypto_ex_data_st = type { ptr, ptr }

; Function Attrs: nounwind uwtable
define i32 @ossl_quic_obj_desires_blocking(ptr noundef %0) #0 {
  %2 = alloca ptr, align 8
  %3 = alloca i32, align 4
  store ptr %0, ptr %2, align 8, !tbaa !3
  call void @llvm.lifetime.start.p0(i64 4, ptr %3) #5
  br label %4

4:                                                ; preds = %20, %1
  %5 = load ptr, ptr %2, align 8, !tbaa !3
  %6 = getelementptr inbounds nuw %struct.quic_obj_st, ptr %5, i32 0, i32 7
  %7 = load i8, ptr %6, align 8
  %8 = lshr i8 %7, 3
  %9 = and i8 %8, 3
  %10 = zext i8 %9 to i32
  store i32 %10, ptr %3, align 4, !tbaa !10
  %11 = icmp eq i32 %10, 0
  br i1 %11, label %12, label %17

12:                                               ; preds = %4
  %13 = load ptr, ptr %2, align 8, !tbaa !3
  %14 = getelementptr inbounds nuw %struct.quic_obj_st, ptr %13, i32 0, i32 1
  %15 = load ptr, ptr %14, align 8, !tbaa !59
  %16 = icmp ne ptr %15, null
  br label %17

17:                                               ; preds = %12, %4
  %18 = phi i1 [ false, %4 ], [ %16, %12 ]
  br i1 %18, label %19, label %24

19:                                               ; preds = %17
  br label %20

20:                                               ; preds = %19
  %21 = load ptr, ptr %2, align 8, !tbaa !3
  %22 = getelementptr inbounds nuw %struct.quic_obj_st, ptr %21, i32 0, i32 1
  %23 = load ptr, ptr %22, align 8, !tbaa !59
  store ptr %23, ptr %2, align 8, !tbaa !3
  br label %4, !llvm.loop !80

24:                                               ; preds = %17
  %25 = load i32, ptr %3, align 4, !tbaa !10
  %26 = icmp ne i32 %25, 1
  %27 = zext i1 %26 to i32
  call void @llvm.lifetime.end.p0(i64 4, ptr %3) #5
  ret i32 %27
}