; Function Attrs: nofree norecurse nosync nounwind memory(read, inaccessiblemem: none) uwtable
define range(i32 0, 2) i32 @ossl_quic_obj_desires_blocking(ptr noundef readonly captures(none) %0) local_unnamed_addr #3 {
  br label %2

2:                                                ; preds = %8, %1
  %.0 = phi ptr [ %0, %1 ], [ %10, %8 ]
  %3 = getelementptr inbounds nuw i8, ptr %.0, i64 112
  %4 = load i8, ptr %3, align 8
  %5 = lshr i8 %4, 3
  %6 = and i8 %5, 3
  %7 = icmp eq i8 %6, 0
  br i1 %7, label %8, label %.critedge

8:                                                ; preds = %2
  %9 = getelementptr inbounds nuw i8, ptr %.0, i64 64
  %10 = load ptr, ptr %9, align 8, !tbaa !53
  %.not = icmp eq ptr %10, null
  br i1 %.not, label %.critedge, label %2, !llvm.loop !74

.critedge:                                        ; preds = %2, %8
  %11 = icmp ne i8 %6, 1
  %12 = zext i1 %11 to i32
  ret i32 %12
}